; Function Attrs: mustprogress uwtable
define void @_ZN6icu_776number4impl17blueprint_helpers22generateCurrencyOptionERKNS_12CurrencyUnitERNS_13UnicodeStringER10UErrorCode(ptr noundef nonnull align 8 dereferenceable(28) %0, ptr noundef nonnull align 8 dereferenceable(64) %1, ptr noundef nonnull readnone align 4 captures(none) dereferenceable(4) %2) local_unnamed_addr #1 personality ptr @__gxx_personality_v0 {
  %4 = getelementptr inbounds nuw i8, ptr %0, i64 20
  %5 = invoke noundef nonnull align 8 dereferenceable(64) ptr @_ZN6icu_7713UnicodeString8doAppendEPKDsii(ptr noundef nonnull align 8 dereferenceable(64) %1, ptr noundef nonnull %4, i32 noundef 0, i32 noundef -1)
          to label %_ZN6icu_7713UnicodeString6appendENS_14ConstChar16PtrEi.exit unwind label %6

_ZN6icu_7713UnicodeString6appendENS_14ConstChar16PtrEi.exit: ; preds = %3
  tail call void asm sideeffect "", "rm,~{memory},~{dirflag},~{fpsr},~{flags}"(ptr nonnull %4) #18, !srcloc !15
  ret void

6:                                                ; preds = %3
  %7 = landingpad { ptr, i32 }
          cleanup
  tail call void asm sideeffect "", "rm,~{memory},~{dirflag},~{fpsr},~{flags}"(ptr nonnull %4) #18, !srcloc !15
  resume { ptr, i32 } %7
}